target datalayout = "e-m:e-p270:32:32-p271:32:32-p272:64:64-i64:64-i128:128-f80:128-n8:16:32:64-S128"
target triple = "x86_64-unknown-linux-gnu"

%"struct.net::QuicCompressedCertsCache::UncompressedCerts" = type { %class.scoped_refptr, ptr, ptr }
%class.scoped_refptr = type { ptr }
%"class.net::QuicCompressedCertsCache::CachedCerts" = type { %class.scoped_refptr, %"class.std::__cxx11::basic_string", %"class.std::__cxx11::basic_string", %"class.std::__cxx11::basic_string" }
%"class.std::__cxx11::basic_string" = type { %"struct.std::__cxx11::basic_string<char>::_Alloc_hider", i64, %union.anon }
%"struct.std::__cxx11::basic_string<char>::_Alloc_hider" = type { ptr }
%union.anon = type { i64, [8 x i8] }

; Function Attrs: mustprogress nounwind uwtable
define linkonce_odr dso_local noundef ptr @_ZNK13scoped_refptrIN3net11ProofSource5ChainEE3getEv(ptr noundef nonnull align 8 dereferenceable(8) %this) #1 comdat align 2 {
entry:
  %this.addr = alloca ptr, align 8
  store ptr %this, ptr %this.addr, align 8
  %this1 = load ptr, ptr %this.addr, align 8
  %ptr_ = getelementptr inbounds %class.scoped_refptr, ptr %this1, i32 0, i32 0
  %0 = load ptr, ptr %ptr_, align 8
  ret ptr %0
}

; Function Attrs: noreturn nounwind uwtable
define linkonce_odr hidden void @__clang_call_terminate(ptr noundef %0) #4 comdat {
  %2 = call ptr @__cxa_begin_catch(ptr %0) #11
  call void @_ZSt9terminatev() #12
  unreachable
}

; Function Attrs: mustprogress nounwind uwtable
define linkonce_odr dso_local noundef i32 @_ZNSt11char_traitsIcE7compareEPKcS2_m(ptr noundef %__s1, ptr noundef %__s2, i64 noundef %__n) #1 comdat align 2 {
entry:
  %retval = alloca i32, align 4
  %__s1.addr = alloca ptr, align 8
  %__s2.addr = alloca ptr, align 8
  %__n.addr = alloca i64, align 8
  store ptr %__s1, ptr %__s1.addr, align 8
  store ptr %__s2, ptr %__s2.addr, align 8
  store i64 %__n, ptr %__n.addr, align 8
  %0 = load i64, ptr %__n.addr, align 8
  %cmp = icmp eq i64 %0, 0
  br i1 %cmp, label %if.then, label %if.end

if.then:                                          ; preds = %entry
  store i32 0, ptr %retval, align 4
  br label %return

if.end:                                           ; preds = %entry
  %1 = load ptr, ptr %__s1.addr, align 8
  %2 = load ptr, ptr %__s2.addr, align 8
  %3 = load i64, ptr %__n.addr, align 8
  %call = call i32 @memcmp(ptr noundef %1, ptr noundef %2, i64 noundef %3) #11
  store i32 %call, ptr %retval, align 4
  br label %return

return:                                           ; preds = %if.end, %if.then
  %4 = load i32, ptr %retval, align 4
  ret i32 %4
}

; Function Attrs: mustprogress uwtable
define linkonce_odr dso_local noundef zeroext i1 @_ZNK13scoped_refptrIN3net11ProofSource5ChainEEeqIS2_EEbRKS_IT_E(ptr noundef nonnull align 8 dereferenceable(8) %this, ptr noundef nonnull align 8 dereferenceable(8) %rhs) #0 comdat align 2 {
entry:
  %this.addr = alloca ptr, align 8
  %rhs.addr = alloca ptr, align 8
  store ptr %this, ptr %this.addr, align 8
  store ptr %rhs, ptr %rhs.addr, align 8
  %this1 = load ptr, ptr %this.addr, align 8
  %ptr_ = getelementptr inbounds %class.scoped_refptr, ptr %this1, i32 0, i32 0
  %0 = load ptr, ptr %ptr_, align 8
  %1 = load ptr, ptr %rhs.addr, align 8
  %call = call noundef ptr @_ZNK13scoped_refptrIN3net11ProofSource5ChainEE3getEv(ptr noundef nonnull align 8 dereferenceable(8) %1)
  %cmp = icmp eq ptr %0, %call
  ret i1 %cmp
}

; Function Attrs: mustprogress nounwind uwtable
define linkonce_odr dso_local noundef zeroext i1 @_ZSteqIcEN9__gnu_cxx11__enable_ifIXsr9__is_charIT_EE7__valueEbE6__typeERKNSt7__cxx1112basic_stringIS2_St11char_traitsIS2_ESaIS2_EEESC_(ptr noundef nonnull align 8 dereferenceable(32) %__lhs, ptr noundef nonnull align 8 dereferenceable(32) %__rhs) #1 comdat personality ptr @__gxx_personality_v0 {
entry:
  %__lhs.addr = alloca ptr, align 8
  %__rhs.addr = alloca ptr, align 8
  store ptr %__lhs, ptr %__lhs.addr, align 8
  store ptr %__rhs, ptr %__rhs.addr, align 8
  %0 = load ptr, ptr %__lhs.addr, align 8
  %call = call noundef i64 @_ZNKSt7__cxx1112basic_stringIcSt11char_traitsIcESaIcEE4sizeEv(ptr noundef nonnull align 8 dereferenceable(32) %0) #11
  %1 = load ptr, ptr %__rhs.addr, align 8
  %call1 = call noundef i64 @_ZNKSt7__cxx1112basic_stringIcSt11char_traitsIcESaIcEE4sizeEv(ptr noundef nonnull align 8 dereferenceable(32) %1) #11
  %cmp = icmp eq i64 %call, %call1
  br i1 %cmp, label %land.rhs, label %land.end

land.rhs:                                         ; preds = %entry
  %2 = load ptr, ptr %__lhs.addr, align 8
  %call2 = call noundef ptr @_ZNKSt7__cxx1112basic_stringIcSt11char_traitsIcESaIcEE4dataEv(ptr noundef nonnull align 8 dereferenceable(32) %2) #11
  %3 = load ptr, ptr %__rhs.addr, align 8
  %call3 = call noundef ptr @_ZNKSt7__cxx1112basic_stringIcSt11char_traitsIcESaIcEE4dataEv(ptr noundef nonnull align 8 dereferenceable(32) %3) #11
  %4 = load ptr, ptr %__lhs.addr, align 8
  %call4 = call noundef i64 @_ZNKSt7__cxx1112basic_stringIcSt11char_traitsIcESaIcEE4sizeEv(ptr noundef nonnull align 8 dereferenceable(32) %4) #11
  %call5 = invoke noundef i32 @_ZNSt11char_traitsIcE7compareEPKcS2_m(ptr noundef %call2, ptr noundef %call3, i64 noundef %call4)
          to label %invoke.cont unwind label %terminate.lpad

invoke.cont:                                      ; preds = %land.rhs
  %tobool = icmp ne i32 %call5, 0
  %lnot = xor i1 %tobool, true
  br label %land.end

land.end:                                         ; preds = %invoke.cont, %entry
  %5 = phi i1 [ false, %entry ], [ %lnot, %invoke.cont ]
  ret i1 %5

terminate.lpad:                                   ; preds = %land.rhs
  %6 = landingpad { ptr, i32 }
          catch ptr null
  %7 = extractvalue { ptr, i32 } %6, 0
  call void @__clang_call_terminate(ptr %7) #12
  unreachable
}

; Function Attrs: mustprogress uwtable
define dso_local noundef zeroext i1 @_ZNK3net24QuicCompressedCertsCache11CachedCerts24MatchesUncompressedCertsERKNS0_17UncompressedCertsE(ptr noundef nonnull align 8 dereferenceable(104) %this, ptr noundef nonnull align 8 dereferenceable(24) %uncompressed_certs) #0 align 2 {
entry:
  %this.addr = alloca ptr, align 8
  %uncompressed_certs.addr = alloca ptr, align 8
  store ptr %this, ptr %this.addr, align 8
  store ptr %uncompressed_certs, ptr %uncompressed_certs.addr, align 8
  %this1 = load ptr, ptr %this.addr, align 8
  %client_common_set_hashes_ = getelementptr inbounds %"class.net::QuicCompressedCertsCache::CachedCerts", ptr %this1, i32 0, i32 1
  %0 = load ptr, ptr %uncompressed_certs.addr, align 8
  %client_common_set_hashes = getelementptr inbounds %"struct.net::QuicCompressedCertsCache::UncompressedCerts", ptr %0, i32 0, i32 1
  %1 = load ptr, ptr %client_common_set_hashes, align 8
  %call = call noundef zeroext i1 @_ZSteqIcEN9__gnu_cxx11__enable_ifIXsr9__is_charIT_EE7__valueEbE6__typeERKNSt7__cxx1112basic_stringIS2_St11char_traitsIS2_ESaIS2_EEESC_(ptr noundef nonnull align 8 dereferenceable(32) %client_common_set_hashes_, ptr noundef nonnull align 8 dereferenceable(32) %1) #11
  br i1 %call, label %land.lhs.true, label %land.end

land.lhs.true:                                    ; preds = %entry
  %client_cached_cert_hashes_ = getelementptr inbounds %"class.net::QuicCompressedCertsCache::CachedCerts", ptr %this1, i32 0, i32 2
  %2 = load ptr, ptr %uncompressed_certs.addr, align 8
  %client_cached_cert_hashes = getelementptr inbounds %"struct.net::QuicCompressedCertsCache::UncompressedCerts", ptr %2, i32 0, i32 2
  %3 = load ptr, ptr %client_cached_cert_hashes, align 8
  %call2 = call noundef zeroext i1 @_ZSteqIcEN9__gnu_cxx11__enable_ifIXsr9__is_charIT_EE7__valueEbE6__typeERKNSt7__cxx1112basic_stringIS2_St11char_traitsIS2_ESaIS2_EEESC_(ptr noundef nonnull align 8 dereferenceable(32) %client_cached_cert_hashes_, ptr noundef nonnull align 8 dereferenceable(32) %3) #11
  br i1 %call2, label %land.rhs, label %land.end

land.rhs:                                         ; preds = %land.lhs.true
  %chain_ = getelementptr inbounds %"class.net::QuicCompressedCertsCache::CachedCerts", ptr %this1, i32 0, i32 0
  %4 = load ptr, ptr %uncompressed_certs.addr, align 8
  %chain = getelementptr inbounds %"struct.net::QuicCompressedCertsCache::UncompressedCerts", ptr %4, i32 0, i32 0
  %call3 = call noundef zeroext i1 @_ZNK13scoped_refptrIN3net11ProofSource5ChainEEeqIS2_EEbRKS_IT_E(ptr noundef nonnull align 8 dereferenceable(8) %chain_, ptr noundef nonnull align 8 dereferenceable(8) %chain)
  br label %land.end

land.end:                                         ; preds = %land.rhs, %land.lhs.true, %entry
  %5 = phi i1 [ false, %land.lhs.true ], [ false, %entry ], [ %call3, %land.rhs ]
  ret i1 %5
}