; Function Attrs: mustprogress nounwind uwtable
define dso_local noundef zeroext i1 @_ZNK3net24QuicCompressedCertsCache11CachedCerts24MatchesUncompressedCertsERKNS0_17UncompressedCertsE(ptr noundef nonnull align 8 dereferenceable(104) %this, ptr nocapture noundef nonnull readonly align 8 dereferenceable(24) %uncompressed_certs) local_unnamed_addr #2 align 2 personality ptr @__gxx_personality_v0 {
entry:
  %client_common_set_hashes_ = getelementptr inbounds i8, ptr %this, i64 8
  %client_common_set_hashes = getelementptr inbounds i8, ptr %uncompressed_certs, i64 8
  %0 = load ptr, ptr %client_common_set_hashes, align 8
  %call.i = tail call noundef i64 @_ZNKSt7__cxx1112basic_stringIcSt11char_traitsIcESaIcEE4sizeEv(ptr noundef nonnull align 8 dereferenceable(32) %client_common_set_hashes_) #13
  %call1.i = tail call noundef i64 @_ZNKSt7__cxx1112basic_stringIcSt11char_traitsIcESaIcEE4sizeEv(ptr noundef nonnull align 8 dereferenceable(32) %0) #13
  %cmp.i = icmp eq i64 %call.i, %call1.i
  br i1 %cmp.i, label %land.rhs.i, label %land.end

land.rhs.i:                                       ; preds = %entry
  %call2.i = tail call noundef ptr @_ZNKSt7__cxx1112basic_stringIcSt11char_traitsIcESaIcEE4dataEv(ptr noundef nonnull align 8 dereferenceable(32) %client_common_set_hashes_) #13
  %call3.i = tail call noundef ptr @_ZNKSt7__cxx1112basic_stringIcSt11char_traitsIcESaIcEE4dataEv(ptr noundef nonnull align 8 dereferenceable(32) %0) #13
  %call4.i = tail call noundef i64 @_ZNKSt7__cxx1112basic_stringIcSt11char_traitsIcESaIcEE4sizeEv(ptr noundef nonnull align 8 dereferenceable(32) %client_common_set_hashes_) #13
  %cmp.i.i = icmp eq i64 %call4.i, 0
  br i1 %cmp.i.i, label %land.lhs.true, label %_ZSteqIcEN9__gnu_cxx11__enable_ifIXsr9__is_charIT_EE7__valueEbE6__typeERKNSt7__cxx1112basic_stringIS2_St11char_traitsIS2_ESaIS2_EEESC_.exit

_ZSteqIcEN9__gnu_cxx11__enable_ifIXsr9__is_charIT_EE7__valueEbE6__typeERKNSt7__cxx1112basic_stringIS2_St11char_traitsIS2_ESaIS2_EEESC_.exit: ; preds = %land.rhs.i
  %bcmp.i = tail call i32 @bcmp(ptr %call2.i, ptr %call3.i, i64 %call4.i)
  %1 = icmp eq i32 %bcmp.i, 0
  br i1 %1, label %land.lhs.true, label %land.end

land.lhs.true:                                    ; preds = %land.rhs.i, %_ZSteqIcEN9__gnu_cxx11__enable_ifIXsr9__is_charIT_EE7__valueEbE6__typeERKNSt7__cxx1112basic_stringIS2_St11char_traitsIS2_ESaIS2_EEESC_.exit
  %client_cached_cert_hashes_ = getelementptr inbounds i8, ptr %this, i64 40
  %client_cached_cert_hashes = getelementptr inbounds i8, ptr %uncompressed_certs, i64 16
  %2 = load ptr, ptr %client_cached_cert_hashes, align 8
  %call.i3 = tail call noundef i64 @_ZNKSt7__cxx1112basic_stringIcSt11char_traitsIcESaIcEE4sizeEv(ptr noundef nonnull align 8 dereferenceable(32) %client_cached_cert_hashes_) #13
  %call1.i4 = tail call noundef i64 @_ZNKSt7__cxx1112basic_stringIcSt11char_traitsIcESaIcEE4sizeEv(ptr noundef nonnull align 8 dereferenceable(32) %2) #13
  %cmp.i5 = icmp eq i64 %call.i3, %call1.i4
  br i1 %cmp.i5, label %land.rhs.i6, label %land.end

land.rhs.i6:                                      ; preds = %land.lhs.true
  %call2.i7 = tail call noundef ptr @_ZNKSt7__cxx1112basic_stringIcSt11char_traitsIcESaIcEE4dataEv(ptr noundef nonnull align 8 dereferenceable(32) %client_cached_cert_hashes_) #13
  %call3.i8 = tail call noundef ptr @_ZNKSt7__cxx1112basic_stringIcSt11char_traitsIcESaIcEE4dataEv(ptr noundef nonnull align 8 dereferenceable(32) %2) #13
  %call4.i9 = tail call noundef i64 @_ZNKSt7__cxx1112basic_stringIcSt11char_traitsIcESaIcEE4sizeEv(ptr noundef nonnull align 8 dereferenceable(32) %client_cached_cert_hashes_) #13
  %cmp.i.i10 = icmp eq i64 %call4.i9, 0
  br i1 %cmp.i.i10, label %land.rhs, label %_ZSteqIcEN9__gnu_cxx11__enable_ifIXsr9__is_charIT_EE7__valueEbE6__typeERKNSt7__cxx1112basic_stringIS2_St11char_traitsIS2_ESaIS2_EEESC_.exit13

_ZSteqIcEN9__gnu_cxx11__enable_ifIXsr9__is_charIT_EE7__valueEbE6__typeERKNSt7__cxx1112basic_stringIS2_St11char_traitsIS2_ESaIS2_EEESC_.exit13: ; preds = %land.rhs.i6
  %bcmp.i12 = tail call i32 @bcmp(ptr %call2.i7, ptr %call3.i8, i64 %call4.i9)
  %3 = icmp eq i32 %bcmp.i12, 0
  br i1 %3, label %land.rhs, label %land.end

land.rhs:                                         ; preds = %land.rhs.i6, %_ZSteqIcEN9__gnu_cxx11__enable_ifIXsr9__is_charIT_EE7__valueEbE6__typeERKNSt7__cxx1112basic_stringIS2_St11char_traitsIS2_ESaIS2_EEESC_.exit13
  %4 = load ptr, ptr %this, align 8
  %5 = load ptr, ptr %uncompressed_certs, align 8
  %cmp.i14 = icmp eq ptr %4, %5
  br label %land.end

land.end:                                         ; preds = %land.lhs.true, %entry, %land.rhs, %_ZSteqIcEN9__gnu_cxx11__enable_ifIXsr9__is_charIT_EE7__valueEbE6__typeERKNSt7__cxx1112basic_stringIS2_St11char_traitsIS2_ESaIS2_EEESC_.exit13, %_ZSteqIcEN9__gnu_cxx11__enable_ifIXsr9__is_charIT_EE7__valueEbE6__typeERKNSt7__cxx1112basic_stringIS2_St11char_traitsIS2_ESaIS2_EEESC_.exit
  %6 = phi i1 [ false, %_ZSteqIcEN9__gnu_cxx11__enable_ifIXsr9__is_charIT_EE7__valueEbE6__typeERKNSt7__cxx1112basic_stringIS2_St11char_traitsIS2_ESaIS2_EEESC_.exit13 ], [ false, %_ZSteqIcEN9__gnu_cxx11__enable_ifIXsr9__is_charIT_EE7__valueEbE6__typeERKNSt7__cxx1112basic_stringIS2_St11char_traitsIS2_ESaIS2_EEESC_.exit ], [ %cmp.i14, %land.rhs ], [ false, %entry ], [ false, %land.lhs.true ]
  ret i1 %6
}